target datalayout = "e-m:e-p270:32:32-p271:32:32-p272:64:64-i64:64-i128:128-f80:128-n8:16:32:64-S128"
target triple = "x86_64-pc-linux-gnu"

%"class.cv::Size_" = type { i32, i32 }
%"class.cv::Rect_" = type { double, double, double, double }
%"class.cv::tracking::impl::tld::Data" = type { i8, i8, i32, double, %"class.cv::Size_" }

; Function Attrs: inlinehint mustprogress nounwind uwtable
define linkonce_odr noundef nonnull align 8 dereferenceable(8) ptr @_ZSt3minIdERKT_S2_S2_(ptr noundef nonnull align 8 dereferenceable(8) %0, ptr noundef nonnull align 8 dereferenceable(8) %1) #4 comdat {
  %3 = alloca ptr, align 8
  %4 = alloca ptr, align 8
  %5 = alloca ptr, align 8
  store ptr %0, ptr %4, align 8, !tbaa !128
  store ptr %1, ptr %5, align 8, !tbaa !128
  %6 = load ptr, ptr %5, align 8, !tbaa !128
  %7 = load double, ptr %6, align 8, !tbaa !57
  %8 = load ptr, ptr %4, align 8, !tbaa !128
  %9 = load double, ptr %8, align 8, !tbaa !57
  %10 = fcmp olt double %7, %9
  br i1 %10, label %11, label %13

11:                                               ; preds = %2
  %12 = load ptr, ptr %5, align 8, !tbaa !128
  store ptr %12, ptr %3, align 8
  br label %15

13:                                               ; preds = %2
  %14 = load ptr, ptr %4, align 8, !tbaa !128
  store ptr %14, ptr %3, align 8
  br label %15

15:                                               ; preds = %13, %11
  %16 = load ptr, ptr %3, align 8
  ret ptr %16
}

; Function Attrs: inlinehint mustprogress nounwind uwtable
define linkonce_odr hidden void @_ZN2cv5Size_IiEC2Ev(ptr noundef nonnull align 4 dereferenceable(8) %0) unnamed_addr #4 comdat align 2 {
  %2 = alloca ptr, align 8
  store ptr %0, ptr %2, align 8, !tbaa !3
  %3 = load ptr, ptr %2, align 8
  %4 = getelementptr inbounds nuw %"class.cv::Size_", ptr %3, i32 0, i32 0
  store i32 0, ptr %4, align 4, !tbaa !10
  %5 = getelementptr inbounds nuw %"class.cv::Size_", ptr %3, i32 0, i32 1
  store i32 0, ptr %5, align 4, !tbaa !12
  ret void
}

; Function Attrs: mustprogress uwtable
define hidden void @_ZN2cv8tracking4impl3tld4DataC2ENS_5Rect_IdEE(ptr noundef nonnull align 8 dereferenceable(24) %0, ptr noundef byval(%"class.cv::Rect_") align 8 %1) unnamed_addr #7 align 2 {
  %3 = alloca ptr, align 8
  %4 = alloca double, align 8
  store ptr %0, ptr %3, align 8, !tbaa !95
  %5 = load ptr, ptr %3, align 8
  %6 = getelementptr inbounds nuw %"class.cv::tracking::impl::tld::Data", ptr %5, i32 0, i32 4
  call void @_ZN2cv5Size_IiEC2Ev(ptr noundef nonnull align 4 dereferenceable(8) %6)
  call void @llvm.lifetime.start.p0(i64 8, ptr %4) #3
  %7 = getelementptr inbounds nuw %"class.cv::Rect_", ptr %1, i32 0, i32 2
  %8 = getelementptr inbounds nuw %"class.cv::Rect_", ptr %1, i32 0, i32 3
  %9 = call noundef nonnull align 8 dereferenceable(8) ptr @_ZSt3minIdERKT_S2_S2_(ptr noundef nonnull align 8 dereferenceable(8) %7, ptr noundef nonnull align 8 dereferenceable(8) %8)
  %10 = load double, ptr %9, align 8, !tbaa !57
  store double %10, ptr %4, align 8, !tbaa !57
  %11 = load double, ptr %4, align 8, !tbaa !57
  %12 = fdiv double 2.000000e+01, %11
  %13 = getelementptr inbounds nuw %"class.cv::tracking::impl::tld::Data", ptr %5, i32 0, i32 3
  store double %12, ptr %13, align 8, !tbaa !97
  %14 = getelementptr inbounds nuw %"class.cv::Rect_", ptr %1, i32 0, i32 2
  %15 = load double, ptr %14, align 8, !tbaa !85
  %16 = fmul double %15, 2.000000e+01
  %17 = load double, ptr %4, align 8, !tbaa !57
  %18 = fdiv double %16, %17
  %19 = fptosi double %18 to i32
  %20 = getelementptr inbounds nuw %"class.cv::tracking::impl::tld::Data", ptr %5, i32 0, i32 4
  %21 = getelementptr inbounds nuw %"class.cv::Size_", ptr %20, i32 0, i32 0
  store i32 %19, ptr %21, align 8, !tbaa !196
  %22 = getelementptr inbounds nuw %"class.cv::Rect_", ptr %1, i32 0, i32 3
  %23 = load double, ptr %22, align 8, !tbaa !86
  %24 = fmul double %23, 2.000000e+01
  %25 = load double, ptr %4, align 8, !tbaa !57
  %26 = fdiv double %24, %25
  %27 = fptosi double %26 to i32
  %28 = getelementptr inbounds nuw %"class.cv::tracking::impl::tld::Data", ptr %5, i32 0, i32 4
  %29 = getelementptr inbounds nuw %"class.cv::Size_", ptr %28, i32 0, i32 1
  store i32 %27, ptr %29, align 4, !tbaa !197
  %30 = getelementptr inbounds nuw %"class.cv::tracking::impl::tld::Data", ptr %5, i32 0, i32 2
  store i32 0, ptr %30, align 4, !tbaa !108
  call void @llvm.lifetime.end.p0(i64 8, ptr %4) #3
  ret void
}