; Function Attrs: mustprogress nofree norecurse nosync nounwind willreturn memory(argmem: readwrite) uwtable
define hidden void @_ZN2cv8tracking4impl3tld4DataC2ENS_5Rect_IdEE(ptr noundef nonnull writeonly align 8 captures(none) dereferenceable(24) initializes((4, 24)) %0, ptr noundef readonly byval(%"class.cv::Rect_") align 8 captures(none) %1) unnamed_addr #13 align 2 {
  %3 = getelementptr inbounds nuw i8, ptr %0, i64 16
  %4 = getelementptr inbounds nuw i8, ptr %0, i64 20
  %5 = getelementptr inbounds nuw i8, ptr %1, i64 16
  %6 = getelementptr inbounds nuw i8, ptr %1, i64 24
  %7 = load double, ptr %6, align 8, !tbaa !60
  %8 = load double, ptr %5, align 8, !tbaa !60
  %9 = fcmp olt double %7, %8
  %10 = select i1 %9, double %7, double %8
  %11 = fdiv double 2.000000e+01, %10
  %12 = getelementptr inbounds nuw i8, ptr %0, i64 8
  store double %11, ptr %12, align 8, !tbaa !62
  %13 = fmul double %8, 2.000000e+01
  %14 = fdiv double %13, %10
  %15 = fptosi double %14 to i32
  store i32 %15, ptr %3, align 8, !tbaa !64
  %16 = fmul double %7, 2.000000e+01
  %17 = fdiv double %16, %10
  %18 = fptosi double %17 to i32
  store i32 %18, ptr %4, align 4, !tbaa !65
  %19 = getelementptr inbounds nuw i8, ptr %0, i64 4
  store i32 0, ptr %19, align 4, !tbaa !66
  ret void
}